target datalayout = "e-m:e-p270:32:32-p271:32:32-p272:64:64-i64:64-i128:128-f80:128-n8:16:32:64-S128"
target triple = "x86_64-unknown-linux-gnu"

%"class.v8::IndirectHandleBase" = type { ptr }
%"class.v8::Global" = type { %"class.v8::PersistentBase" }
%"class.v8::PersistentBase" = type { %"class.v8::IndirectHandleBase" }
%"class.v8::Global.0" = type { %"class.v8::PersistentBase.1" }
%"class.v8::PersistentBase.1" = type { %"class.v8::IndirectHandleBase" }
%"class.v8impl::RefTracker" = type { ptr, ptr, ptr }
%"class.std::unordered_set" = type { %"class.std::_Hashtable" }
%"class.std::_Hashtable" = type { ptr, i64, %"struct.std::__detail::_Hash_node_base", i64, %"struct.std::__detail::_Prime_rehash_policy", ptr }
%"struct.std::__detail::_Hash_node_base" = type { ptr }
%"struct.std::__detail::_Prime_rehash_policy" = type { float, i64 }
%struct.napi_extended_error_info = type { ptr, ptr, i32, i32 }
%struct.napi_env__ = type <{ ptr, ptr, %"class.v8::Global", %"class.v8::Global.0", %"class.v8impl::RefTracker", %"class.v8impl::RefTracker", %"class.std::unordered_set", %struct.napi_extended_error_info, i32, i32, i32, [4 x i8], ptr, i32, i8, [3 x i8] }>
%"class.v8::Local.275" = type { %"class.v8::LocalBase.276" }
%"class.v8::LocalBase.276" = type { %"class.v8::IndirectHandleBase" }

; Function Attrs: mustprogress nounwind uwtable
define linkonce_odr dso_local noundef i32 @_Z21napi_clear_last_errorP10napi_env__(ptr noundef %env) #4 comdat {
entry:
  %env.addr = alloca ptr, align 8
  store ptr %env, ptr %env.addr, align 8
  %0 = load ptr, ptr %env.addr, align 8
  %last_error = getelementptr inbounds %struct.napi_env__, ptr %0, i32 0, i32 7
  %error_code = getelementptr inbounds %struct.napi_extended_error_info, ptr %last_error, i32 0, i32 3
  store i32 0, ptr %error_code, align 4
  %1 = load ptr, ptr %env.addr, align 8
  %last_error1 = getelementptr inbounds %struct.napi_env__, ptr %1, i32 0, i32 7
  %engine_error_code = getelementptr inbounds %struct.napi_extended_error_info, ptr %last_error1, i32 0, i32 2
  store i32 0, ptr %engine_error_code, align 8
  %2 = load ptr, ptr %env.addr, align 8
  %last_error2 = getelementptr inbounds %struct.napi_env__, ptr %2, i32 0, i32 7
  %engine_reserved = getelementptr inbounds %struct.napi_extended_error_info, ptr %last_error2, i32 0, i32 1
  store ptr null, ptr %engine_reserved, align 8
  %3 = load ptr, ptr %env.addr, align 8
  %last_error3 = getelementptr inbounds %struct.napi_env__, ptr %3, i32 0, i32 7
  %error_message = getelementptr inbounds %struct.napi_extended_error_info, ptr %last_error3, i32 0, i32 0
  store ptr null, ptr %error_message, align 8
  ret i32 0
}

; Function Attrs: mustprogress nounwind uwtable
define linkonce_odr dso_local ptr @_ZN6v8impl23V8LocalValueFromJsValueEP12napi_value__(ptr noundef %v) #4 comdat {
entry:
  %this.addr.i.i = alloca ptr, align 8
  %this.addr.i3 = alloca ptr, align 8
  %this.addr.i = alloca ptr, align 8
  %retval = alloca %"class.v8::Local.275", align 8
  %v.addr = alloca ptr, align 8
  store ptr %v, ptr %v.addr, align 8
  store ptr %retval, ptr %this.addr.i, align 8
  %this1.i = load ptr, ptr %this.addr.i, align 8
  store ptr %this1.i, ptr %this.addr.i3, align 8
  %this1.i4 = load ptr, ptr %this.addr.i3, align 8
  store ptr %this1.i4, ptr %this.addr.i.i, align 8
  %this1.i.i = load ptr, ptr %this.addr.i.i, align 8
  store ptr null, ptr %this1.i.i, align 8
  call void @llvm.memcpy.p0.p0.i64(ptr align 1 %retval, ptr align 8 %v.addr, i64 8, i1 false)
  %coerce.dive = getelementptr inbounds %"class.v8::Local.275", ptr %retval, i32 0, i32 0
  %coerce.dive1 = getelementptr inbounds %"class.v8::LocalBase.276", ptr %coerce.dive, i32 0, i32 0
  %coerce.dive2 = getelementptr inbounds %"class.v8::IndirectHandleBase", ptr %coerce.dive1, i32 0, i32 0
  %0 = load ptr, ptr %coerce.dive2, align 8
  ret ptr %0
}

; Function Attrs: mustprogress nounwind uwtable
define linkonce_odr dso_local noundef i32 @_Z19napi_set_last_errorP10napi_env__11napi_statusjPv(ptr noundef %env, i32 noundef %error_code, i32 noundef %engine_error_code, ptr noundef %engine_reserved) #4 comdat {
entry:
  %env.addr = alloca ptr, align 8
  %error_code.addr = alloca i32, align 4
  %engine_error_code.addr = alloca i32, align 4
  %engine_reserved.addr = alloca ptr, align 8
  store ptr %env, ptr %env.addr, align 8
  store i32 %error_code, ptr %error_code.addr, align 4
  store i32 %engine_error_code, ptr %engine_error_code.addr, align 4
  store ptr %engine_reserved, ptr %engine_reserved.addr, align 8
  %0 = load i32, ptr %error_code.addr, align 4
  %1 = load ptr, ptr %env.addr, align 8
  %last_error = getelementptr inbounds %struct.napi_env__, ptr %1, i32 0, i32 7
  %error_code1 = getelementptr inbounds %struct.napi_extended_error_info, ptr %last_error, i32 0, i32 3
  store i32 %0, ptr %error_code1, align 4
  %2 = load i32, ptr %engine_error_code.addr, align 4
  %3 = load ptr, ptr %env.addr, align 8
  %last_error2 = getelementptr inbounds %struct.napi_env__, ptr %3, i32 0, i32 7
  %engine_error_code3 = getelementptr inbounds %struct.napi_extended_error_info, ptr %last_error2, i32 0, i32 2
  store i32 %2, ptr %engine_error_code3, align 8
  %4 = load ptr, ptr %engine_reserved.addr, align 8
  %5 = load ptr, ptr %env.addr, align 8
  %last_error4 = getelementptr inbounds %struct.napi_env__, ptr %5, i32 0, i32 7
  %engine_reserved5 = getelementptr inbounds %struct.napi_extended_error_info, ptr %last_error4, i32 0, i32 1
  store ptr %4, ptr %engine_reserved5, align 8
  %6 = load i32, ptr %error_code.addr, align 4
  ret i32 %6
}

; Function Attrs: mustprogress nounwind uwtable
define linkonce_odr dso_local void @_ZN10napi_env__13CheckGCAccessEv(ptr noundef nonnull align 8 dereferenceable(189) %this) #4 comdat align 2 {
entry:
  %this.addr = alloca ptr, align 8
  store ptr %this, ptr %this.addr, align 8
  %this1 = load ptr, ptr %this.addr, align 8
  %module_api_version = getelementptr inbounds %struct.napi_env__, ptr %this1, i32 0, i32 13
  %0 = load i32, ptr %module_api_version, align 8
  %cmp = icmp eq i32 %0, 2147483647
  br i1 %cmp, label %land.lhs.true, label %if.end

land.lhs.true:                                    ; preds = %entry
  %in_gc_finalizer = getelementptr inbounds %struct.napi_env__, ptr %this1, i32 0, i32 14
  %1 = load i8, ptr %in_gc_finalizer, align 4
  %tobool = trunc i8 %1 to i1
  br i1 %tobool, label %if.then, label %if.end

if.then:                                          ; preds = %land.lhs.true
  call void @_ZN6v8impl12OnFatalErrorEPKcS1_(ptr noundef null, ptr noundef @.str.38) #15
  unreachable

if.end:                                           ; preds = %land.lhs.true, %entry
  ret void
}

; Function Attrs: mustprogress nounwind uwtable
define dso_local i32 @napi_is_buffer(ptr noundef %env, ptr noundef %value, ptr noundef %result) #4 {
entry:
  %retval = alloca i32, align 4
  %env.addr = alloca ptr, align 8
  %value.addr = alloca ptr, align 8
  %result.addr = alloca ptr, align 8
  %agg.tmp = alloca %"class.v8::Local.275", align 8
  store ptr %env, ptr %env.addr, align 8
  store ptr %value, ptr %value.addr, align 8
  store ptr %result, ptr %result.addr, align 8
  br label %do.body

do.body:                                          ; preds = %entry
  br label %do.body1

do.body1:                                         ; preds = %do.body
  %0 = load ptr, ptr %env.addr, align 8
  %cmp = icmp eq ptr %0, null
  br i1 %cmp, label %if.then, label %if.end

if.then:                                          ; preds = %do.body1
  store i32 1, ptr %retval, align 4
  br label %return

if.end:                                           ; preds = %do.body1
  br label %do.end

do.end:                                           ; preds = %if.end
  %1 = load ptr, ptr %env.addr, align 8
  call void @_ZN10napi_env__13CheckGCAccessEv(ptr noundef nonnull align 8 dereferenceable(189) %1)
  br label %do.end2

do.end2:                                          ; preds = %do.end
  br label %do.body3

do.body3:                                         ; preds = %do.end2
  %2 = load ptr, ptr %value.addr, align 8
  %cmp4 = icmp ne ptr %2, null
  br i1 %cmp4, label %if.end6, label %if.then5

if.then5:                                         ; preds = %do.body3
  %3 = load ptr, ptr %env.addr, align 8
  %call = call noundef i32 @_Z19napi_set_last_errorP10napi_env__11napi_statusjPv(ptr noundef %3, i32 noundef 1, i32 noundef 0, ptr noundef null)
  store i32 %call, ptr %retval, align 4
  br label %return

if.end6:                                          ; preds = %do.body3
  br label %do.end7

do.end7:                                          ; preds = %if.end6
  br label %do.body8

do.body8:                                         ; preds = %do.end7
  %4 = load ptr, ptr %result.addr, align 8
  %cmp9 = icmp ne ptr %4, null
  br i1 %cmp9, label %if.end12, label %if.then10

if.then10:                                        ; preds = %do.body8
  %5 = load ptr, ptr %env.addr, align 8
  %call11 = call noundef i32 @_Z19napi_set_last_errorP10napi_env__11napi_statusjPv(ptr noundef %5, i32 noundef 1, i32 noundef 0, ptr noundef null)
  store i32 %call11, ptr %retval, align 4
  br label %return

if.end12:                                         ; preds = %do.body8
  br label %do.end13

do.end13:                                         ; preds = %if.end12
  %6 = load ptr, ptr %value.addr, align 8
  %call14 = call ptr @_ZN6v8impl23V8LocalValueFromJsValueEP12napi_value__(ptr noundef %6)
  %coerce.dive = getelementptr inbounds %"class.v8::Local.275", ptr %agg.tmp, i32 0, i32 0
  %coerce.dive15 = getelementptr inbounds %"class.v8::LocalBase.276", ptr %coerce.dive, i32 0, i32 0
  %coerce.dive16 = getelementptr inbounds %"class.v8::IndirectHandleBase", ptr %coerce.dive15, i32 0, i32 0
  store ptr %call14, ptr %coerce.dive16, align 8
  %coerce.dive17 = getelementptr inbounds %"class.v8::Local.275", ptr %agg.tmp, i32 0, i32 0
  %coerce.dive18 = getelementptr inbounds %"class.v8::LocalBase.276", ptr %coerce.dive17, i32 0, i32 0
  %coerce.dive19 = getelementptr inbounds %"class.v8::IndirectHandleBase", ptr %coerce.dive18, i32 0, i32 0
  %7 = load ptr, ptr %coerce.dive19, align 8
  %call20 = call noundef zeroext i1 @_ZN4node6Buffer11HasInstanceEN2v85LocalINS1_5ValueEEE(ptr %7)
  %8 = load ptr, ptr %result.addr, align 8
  %frombool = zext i1 %call20 to i8
  store i8 %frombool, ptr %8, align 1
  %9 = load ptr, ptr %env.addr, align 8
  %call21 = call noundef i32 @_Z21napi_clear_last_errorP10napi_env__(ptr noundef %9)
  store i32 %call21, ptr %retval, align 4
  br label %return

return:                                           ; preds = %do.end13, %if.then10, %if.then5, %if.then
  %10 = load i32, ptr %retval, align 4
  ret i32 %10
}